target datalayout = "e-m:e-p270:32:32-p271:32:32-p272:64:64-i64:64-i128:128-f80:128-n8:16:32:64-S128"
target triple = "x86_64-pc-linux-gnu"

%class.Sample = type { ptr, ptr, ptr, ptr, ptr, i8, float, float, float, float, float, float, float, float, float, float, float, float, float, i32, i8, i8, i8, ptr, [9 x ptr], ptr, %class.SampleDebugDraw }
%class.SampleDebugDraw = type { %class.DebugDrawGL }
%class.DebugDrawGL = type { %struct.duDebugDraw }
%struct.duDebugDraw = type { ptr }

@_ZTV11DebugDrawGL = external unnamed_addr constant { [13 x ptr] }, align 8
@_ZTV11duDebugDraw = external unnamed_addr constant { [13 x ptr] }, align 8

; Function Attrs: mustprogress nounwind uwtable
define linkonce_odr dso_local void @_ZN11duDebugDrawC2Ev(ptr noundef nonnull align 8 dereferenceable(8) %0) unnamed_addr #0 comdat align 2 {
  %2 = alloca ptr, align 8
  store ptr %0, ptr %2, align 8
  %3 = load ptr, ptr %2, align 8
  store ptr getelementptr inbounds ({ [13 x ptr] }, ptr @_ZTV11duDebugDraw, i32 0, i32 0, i32 2), ptr %3, align 8
  ret void
}

; Function Attrs: mustprogress nounwind uwtable
define linkonce_odr dso_local void @_ZN11DebugDrawGLD2Ev(ptr noundef nonnull align 8 dereferenceable(8) %0) unnamed_addr #0 comdat align 2 {
  %2 = alloca ptr, align 8
  store ptr %0, ptr %2, align 8
  %3 = load ptr, ptr %2, align 8
  call void @_ZN11duDebugDrawD2Ev(ptr noundef nonnull align 8 dereferenceable(8) %3) #10
  ret void
}

; Function Attrs: mustprogress nounwind uwtable
define linkonce_odr dso_local void @_ZN11DebugDrawGLC2Ev(ptr noundef nonnull align 8 dereferenceable(8) %0) unnamed_addr #0 comdat align 2 {
  %2 = alloca ptr, align 8
  store ptr %0, ptr %2, align 8
  %3 = load ptr, ptr %2, align 8
  call void @_ZN11duDebugDrawC2Ev(ptr noundef nonnull align 8 dereferenceable(8) %3) #10
  store ptr getelementptr inbounds ({ [13 x ptr] }, ptr @_ZTV11DebugDrawGL, i32 0, i32 0, i32 2), ptr %3, align 8
  ret void
}

; Function Attrs: mustprogress nounwind uwtable
define linkonce_odr dso_local void @_ZN15SampleDebugDrawD2Ev(ptr noundef nonnull align 8 dereferenceable(8) %0) unnamed_addr #0 comdat align 2 {
  %2 = alloca ptr, align 8
  store ptr %0, ptr %2, align 8
  %3 = load ptr, ptr %2, align 8
  call void @_ZN11DebugDrawGLD2Ev(ptr noundef nonnull align 8 dereferenceable(8) %3) #10
  ret void
}

; Function Attrs: mustprogress nounwind uwtable
define dso_local void @_ZN6Sample19resetCommonSettingsEv(ptr noundef nonnull align 8 dereferenceable(200) %0) #0 align 2 {
  %2 = alloca ptr, align 8
  store ptr %0, ptr %2, align 8
  %3 = load ptr, ptr %2, align 8
  %4 = getelementptr inbounds %class.Sample, ptr %3, i32 0, i32 6
  store float 0x3FD3333340000000, ptr %4, align 4
  %5 = getelementptr inbounds %class.Sample, ptr %3, i32 0, i32 7
  store float 0x3FC99999A0000000, ptr %5, align 8
  %6 = getelementptr inbounds %class.Sample, ptr %3, i32 0, i32 8
  store float 2.000000e+00, ptr %6, align 4
  %7 = getelementptr inbounds %class.Sample, ptr %3, i32 0, i32 9
  store float 0x3FE3333340000000, ptr %7, align 8
  %8 = getelementptr inbounds %class.Sample, ptr %3, i32 0, i32 10
  store float 0x3FECCCCCC0000000, ptr %8, align 4
  %9 = getelementptr inbounds %class.Sample, ptr %3, i32 0, i32 11
  store float 4.500000e+01, ptr %9, align 8
  %10 = getelementptr inbounds %class.Sample, ptr %3, i32 0, i32 12
  store float 8.000000e+00, ptr %10, align 4
  %11 = getelementptr inbounds %class.Sample, ptr %3, i32 0, i32 13
  store float 2.000000e+01, ptr %11, align 8
  %12 = getelementptr inbounds %class.Sample, ptr %3, i32 0, i32 14
  store float 1.200000e+01, ptr %12, align 4
  %13 = getelementptr inbounds %class.Sample, ptr %3, i32 0, i32 15
  store float 0x3FF4CCCCC0000000, ptr %13, align 8
  %14 = getelementptr inbounds %class.Sample, ptr %3, i32 0, i32 16
  store float 6.000000e+00, ptr %14, align 4
  %15 = getelementptr inbounds %class.Sample, ptr %3, i32 0, i32 17
  store float 6.000000e+00, ptr %15, align 8
  %16 = getelementptr inbounds %class.Sample, ptr %3, i32 0, i32 18
  store float 1.000000e+00, ptr %16, align 4
  %17 = getelementptr inbounds %class.Sample, ptr %3, i32 0, i32 19
  store i32 0, ptr %17, align 8
  ret void
}

; Function Attrs: mustprogress nounwind uwtable
define linkonce_odr dso_local void @_ZN15SampleDebugDrawC2Ev(ptr noundef nonnull align 8 dereferenceable(8) %0) unnamed_addr #0 comdat align 2 {
  %2 = alloca ptr, align 8
  store ptr %0, ptr %2, align 8
  %3 = load ptr, ptr %2, align 8
  call void @_ZN11DebugDrawGLC2Ev(ptr noundef nonnull align 8 dereferenceable(8) %3) #10
  store ptr getelementptr inbounds ({ [13 x ptr] }, ptr @_ZTV15SampleDebugDraw, i32 0, i32 0, i32 2), ptr %3, align 8
  ret void
}

; Function Attrs: mustprogress uwtable
define dso_local void @_ZN6SampleC2Ev(ptr noundef nonnull align 8 dereferenceable(200) %0) unnamed_addr #2 align 2 personality ptr @__gxx_personality_v0 {
  %2 = alloca ptr, align 8
  %3 = alloca ptr, align 8
  %4 = alloca i32, align 4
  %5 = alloca i32, align 4
  store ptr %0, ptr %2, align 8
  %6 = load ptr, ptr %2, align 8
  store ptr getelementptr inbounds ({ [23 x ptr] }, ptr @_ZTV6Sample, i32 0, i32 0, i32 2), ptr %6, align 8
  %7 = getelementptr inbounds %class.Sample, ptr %6, i32 0, i32 1
  store ptr null, ptr %7, align 8
  %8 = getelementptr inbounds %class.Sample, ptr %6, i32 0, i32 2
  store ptr null, ptr %8, align 8
  %9 = getelementptr inbounds %class.Sample, ptr %6, i32 0, i32 3
  store ptr null, ptr %9, align 8
  %10 = getelementptr inbounds %class.Sample, ptr %6, i32 0, i32 4
  store ptr null, ptr %10, align 8
  %11 = getelementptr inbounds %class.Sample, ptr %6, i32 0, i32 5
  store i8 3, ptr %11, align 8
  %12 = getelementptr inbounds %class.Sample, ptr %6, i32 0, i32 20
  store i8 1, ptr %12, align 4
  %13 = getelementptr inbounds %class.Sample, ptr %6, i32 0, i32 21
  store i8 1, ptr %13, align 1
  %14 = getelementptr inbounds %class.Sample, ptr %6, i32 0, i32 22
  store i8 1, ptr %14, align 2
  %15 = getelementptr inbounds %class.Sample, ptr %6, i32 0, i32 23
  store ptr null, ptr %15, align 8
  %16 = getelementptr inbounds %class.Sample, ptr %6, i32 0, i32 25
  store ptr null, ptr %16, align 8
  %17 = getelementptr inbounds %class.Sample, ptr %6, i32 0, i32 26
  call void @_ZN15SampleDebugDrawC2Ev(ptr noundef nonnull align 8 dereferenceable(8) %17) #10
  invoke void @_ZN6Sample19resetCommonSettingsEv(ptr noundef nonnull align 8 dereferenceable(200) %6)
          to label %18 unwind label %36

18:                                               ; preds = %1
  %19 = invoke noundef ptr @_Z19dtAllocNavMeshQueryv()
          to label %20 unwind label %36

20:                                               ; preds = %18
  %21 = getelementptr inbounds %class.Sample, ptr %6, i32 0, i32 3
  store ptr %19, ptr %21, align 8
  %22 = invoke noundef ptr @_Z12dtAllocCrowdv()
          to label %23 unwind label %36

23:                                               ; preds = %20
  %24 = getelementptr inbounds %class.Sample, ptr %6, i32 0, i32 4
  store ptr %22, ptr %24, align 8
  store i32 0, ptr %5, align 4
  br label %25

25:                                               ; preds = %33, %23
  %26 = load i32, ptr %5, align 4
  %27 = icmp slt i32 %26, 9
  br i1 %27, label %28, label %40

28:                                               ; preds = %25
  %29 = getelementptr inbounds %class.Sample, ptr %6, i32 0, i32 24
  %30 = load i32, ptr %5, align 4
  %31 = sext i32 %30 to i64
  %32 = getelementptr inbounds [9 x ptr], ptr %29, i64 0, i64 %31
  store ptr null, ptr %32, align 8
  br label %33

33:                                               ; preds = %28
  %34 = load i32, ptr %5, align 4
  %35 = add nsw i32 %34, 1
  store i32 %35, ptr %5, align 4
  br label %25, !llvm.loop !5

36:                                               ; preds = %20, %18, %1
  %37 = landingpad { ptr, i32 }
          cleanup
  %38 = extractvalue { ptr, i32 } %37, 0
  store ptr %38, ptr %3, align 8
  %39 = extractvalue { ptr, i32 } %37, 1
  store i32 %39, ptr %4, align 4
  call void @_ZN15SampleDebugDrawD2Ev(ptr noundef nonnull align 8 dereferenceable(8) %17) #10
  br label %41

40:                                               ; preds = %25
  ret void

41:                                               ; preds = %36
  %42 = load ptr, ptr %3, align 8
  %43 = load i32, ptr %4, align 4
  %44 = insertvalue { ptr, i32 } poison, ptr %42, 0
  %45 = insertvalue { ptr, i32 } %44, i32 %43, 1
  resume { ptr, i32 } %45
}