; Function Attrs: mustprogress uwtable
define dso_local void @_ZN6SampleC2Ev(ptr noundef nonnull align 8 dereferenceable(200) %0) unnamed_addr #3 align 2 personality ptr @__gxx_personality_v0 {
  store ptr getelementptr inbounds ({ [23 x ptr] }, ptr @_ZTV6Sample, i64 0, i32 0, i64 2), ptr %0, align 8
  %2 = getelementptr inbounds i8, ptr %0, i64 8
  %3 = getelementptr inbounds i8, ptr %0, i64 40
  tail call void @llvm.memset.p0.i64(ptr noundef nonnull align 8 dereferenceable(32) %2, i8 0, i64 32, i1 false)
  store i8 3, ptr %3, align 8
  %4 = getelementptr inbounds i8, ptr %0, i64 100
  store i8 1, ptr %4, align 4
  %5 = getelementptr inbounds i8, ptr %0, i64 101
  store i8 1, ptr %5, align 1
  %6 = getelementptr inbounds i8, ptr %0, i64 102
  store i8 1, ptr %6, align 2
  %7 = getelementptr inbounds i8, ptr %0, i64 104
  store ptr null, ptr %7, align 8
  %8 = getelementptr inbounds i8, ptr %0, i64 184
  store ptr null, ptr %8, align 8
  %9 = getelementptr inbounds i8, ptr %0, i64 192
  store ptr getelementptr inbounds ({ [13 x ptr] }, ptr @_ZTV15SampleDebugDraw, i64 0, i32 0, i64 2), ptr %9, align 8
  %10 = getelementptr inbounds i8, ptr %0, i64 44
  store <4 x float> <float 0x3FD3333340000000, float 0x3FC99999A0000000, float 2.000000e+00, float 0x3FE3333340000000>, ptr %10, align 4
  %11 = getelementptr inbounds i8, ptr %0, i64 60
  store <4 x float> <float 0x3FECCCCCC0000000, float 4.500000e+01, float 8.000000e+00, float 2.000000e+01>, ptr %11, align 4
  %12 = getelementptr inbounds i8, ptr %0, i64 76
  store <4 x float> <float 1.200000e+01, float 0x3FF4CCCCC0000000, float 6.000000e+00, float 6.000000e+00>, ptr %12, align 4
  %13 = getelementptr inbounds i8, ptr %0, i64 92
  store float 1.000000e+00, ptr %13, align 4
  %14 = getelementptr inbounds i8, ptr %0, i64 96
  store i32 0, ptr %14, align 8
  %15 = invoke noundef ptr @_Z19dtAllocNavMeshQueryv()
          to label %16 unwind label %22

16:                                               ; preds = %1
  %17 = getelementptr inbounds i8, ptr %0, i64 24
  store ptr %15, ptr %17, align 8
  %18 = invoke noundef ptr @_Z12dtAllocCrowdv()
          to label %19 unwind label %22

19:                                               ; preds = %16
  %20 = getelementptr inbounds i8, ptr %0, i64 32
  store ptr %18, ptr %20, align 8
  %21 = getelementptr inbounds i8, ptr %0, i64 112
  tail call void @llvm.memset.p0.i64(ptr noundef nonnull align 8 dereferenceable(72) %21, i8 0, i64 72, i1 false)
  ret void

22:                                               ; preds = %16, %1
  %23 = landingpad { ptr, i32 }
          cleanup
  tail call void @_ZN11duDebugDrawD2Ev(ptr noundef nonnull align 8 dereferenceable(8) %9) #15
  resume { ptr, i32 } %23
}